target datalayout = "e-m:e-p270:32:32-p271:32:32-p272:64:64-i64:64-i128:128-f80:128-n8:16:32:64-S128"
target triple = "x86_64-pc-linux-gnu"

%"struct.SystemDictionaryShared::ArchiveInfo" = type { %class.RunTimeSharedDictionary, %class.RunTimeSharedDictionary, %class.LambdaProxyClassDictionary }
%class.RunTimeSharedDictionary = type { %class.OffsetCompactHashtable }
%class.OffsetCompactHashtable = type { %class.CompactHashtable }
%class.CompactHashtable = type { %class.SimpleCompactHashtable }
%class.SimpleCompactHashtable = type { ptr, i32, i32, ptr, ptr }
%class.LambdaProxyClassDictionary = type { %class.OffsetCompactHashtable.0 }
%class.OffsetCompactHashtable.0 = type { %class.CompactHashtable.1 }
%class.CompactHashtable.1 = type { %class.SimpleCompactHashtable }
%class.Klass = type <{ %class.Metadata, i32, i32, i32, i32, ptr, ptr, ptr, [8 x ptr], %class.OopHandle, ptr, ptr, ptr, ptr, ptr, i32, %class.AccessFlags, i64, i64, i8, i8, i16, i16, [2 x i8], i32, [4 x i8] }>
%class.Metadata = type { ptr }
%class.OopHandle = type { ptr }
%class.AccessFlags = type { i32 }
%class.RunTimeClassInfo = type { ptr, i32, i32 }

@_ZN22SystemDictionaryShared15_static_archiveE = hidden global %"struct.SystemDictionaryShared::ArchiveInfo" zeroinitializer, align 8
@_ZN22SystemDictionaryShared16_dynamic_archiveE = hidden global %"struct.SystemDictionaryShared::ArchiveInfo" zeroinitializer, align 8
@_ZN11JvmtiExport33_should_post_class_file_load_hookE = external global i8, align 1

; Function Attrs: mustprogress nounwind uwtable
define linkonce_odr hidden noundef zeroext i1 @_ZN11JvmtiExport32should_post_class_file_load_hookEv() #1 comdat align 2 {
  %1 = load i8, ptr @_ZN11JvmtiExport33_should_post_class_file_load_hookE, align 1
  %2 = trunc i8 %1 to i1
  ret i1 %2
}

; Function Attrs: mustprogress nounwind uwtable
define linkonce_odr hidden noundef zeroext i1 @_ZNK5Klass25is_generated_shared_classEv(ptr noundef nonnull align 8 dereferenceable(196) %0) #1 comdat align 2 {
  %2 = alloca ptr, align 8
  store ptr %0, ptr %2, align 8
  %3 = load ptr, ptr %2, align 8
  %4 = getelementptr inbounds %class.Klass, ptr %3, i32 0, i32 22
  %5 = load i16, ptr %4, align 4
  %6 = zext i16 %5 to i32
  %7 = and i32 %6, 32
  %8 = icmp ne i32 %7, 0
  ret i1 %8
}

; Function Attrs: mustprogress nounwind uwtable
define hidden noundef ptr @_ZN22SystemDictionaryShared18find_builtin_classEP6Symbol(ptr noundef %0) #1 align 2 {
  %2 = alloca ptr, align 8
  %3 = alloca ptr, align 8
  %4 = alloca ptr, align 8
  store ptr %0, ptr %3, align 8
  %5 = load ptr, ptr %3, align 8
  %6 = call noundef ptr @_ZN22SystemDictionaryShared11find_recordEP23RunTimeSharedDictionaryS1_P6Symbol(ptr noundef @_ZN22SystemDictionaryShared15_static_archiveE, ptr noundef @_ZN22SystemDictionaryShared16_dynamic_archiveE, ptr noundef %5)
  store ptr %6, ptr %4, align 8
  %7 = load ptr, ptr %4, align 8
  %8 = icmp ne ptr %7, null
  br i1 %8, label %9, label %21

9:                                                ; preds = %1
  %10 = load ptr, ptr %4, align 8
  %11 = getelementptr inbounds %class.RunTimeClassInfo, ptr %10, i32 0, i32 0
  %12 = load ptr, ptr %11, align 8
  %13 = call noundef zeroext i1 @_ZNK5Klass25is_generated_shared_classEv(ptr noundef nonnull align 8 dereferenceable(196) %12)
  br i1 %13, label %14, label %17

14:                                               ; preds = %9
  %15 = call noundef zeroext i1 @_ZN11JvmtiExport32should_post_class_file_load_hookEv()
  br i1 %15, label %16, label %17

16:                                               ; preds = %14
  store ptr null, ptr %2, align 8
  br label %22

17:                                               ; preds = %14, %9
  %18 = load ptr, ptr %4, align 8
  %19 = getelementptr inbounds %class.RunTimeClassInfo, ptr %18, i32 0, i32 0
  %20 = load ptr, ptr %19, align 8
  store ptr %20, ptr %2, align 8
  br label %22

21:                                               ; preds = %1
  store ptr null, ptr %2, align 8
  br label %22

22:                                               ; preds = %21, %17, %16
  %23 = load ptr, ptr %2, align 8
  ret ptr %23
}