; Function Attrs: mustprogress nounwind uwtable
define hidden noundef ptr @_ZN22SystemDictionaryShared18find_builtin_classEP6Symbol(ptr noundef %0) local_unnamed_addr #0 align 2 {
  %2 = tail call noundef ptr @_ZN22SystemDictionaryShared11find_recordEP23RunTimeSharedDictionaryS1_P6Symbol(ptr noundef nonnull @_ZN22SystemDictionaryShared15_static_archiveE, ptr noundef nonnull @_ZN22SystemDictionaryShared16_dynamic_archiveE, ptr noundef %0)
  %.not = icmp eq ptr %2, null
  br i1 %.not, label %12, label %3

3:                                                ; preds = %1
  %4 = load ptr, ptr %2, align 8
  %5 = getelementptr inbounds i8, ptr %4, i64 188
  %6 = load i16, ptr %5, align 4
  %7 = and i16 %6, 32
  %.not6 = icmp eq i16 %7, 0
  br i1 %.not6, label %11, label %8

8:                                                ; preds = %3
  %9 = load i8, ptr @_ZN11JvmtiExport33_should_post_class_file_load_hookE, align 1
  %10 = trunc i8 %9 to i1
  br i1 %10, label %12, label %11

11:                                               ; preds = %8, %3
  br label %12

12:                                               ; preds = %1, %8, %11
  %.0 = phi ptr [ %4, %11 ], [ null, %8 ], [ null, %1 ]
  ret ptr %.0
}